target datalayout = "e-m:e-p270:32:32-p271:32:32-p272:64:64-i64:64-i128:128-f80:128-n8:16:32:64-S128"
target triple = "x86_64-pc-linux-gnu"

%struct.AVRational = type { i32, i32 }
%struct.AVCodecContext = type { ptr, i32, i32, ptr, i32, i32, ptr, ptr, ptr, i64, i32, i32, ptr, i32, %struct.AVRational, %struct.AVRational, %struct.AVRational, i32, i32, i32, i32, i32, %struct.AVRational, i32, i32, i32, i32, i32, i32, i32, i32, i32, i32, i32, ptr, ptr, i32, float, float, float, float, float, float, float, float, float, i32, i32, i32, i32, i32, i32, i32, i32, i32, i32, i32, i32, ptr, ptr, ptr, i32, i32, i32, i32, i32, i32, i32, i32, i32, i32, %struct.AVChannelLayout, i32, i32, i32, i32, i32, i32, i32, i32, ptr, i32, i32, i32, float, float, i32, i32, i32, i32, i32, ptr, i64, i64, float, float, i32, i32, ptr, ptr, i32, i32, i32, i32, i32, ptr, ptr, ptr, ptr, i32, i32, [8 x i64], i32, i32, i32, i32, i32, i32, i32, ptr, ptr, i32, i32, i32, i32, i32, i32, i32, i32, i32, i32, ptr, ptr, i32, i32, ptr, ptr, ptr, ptr, i32, i32, i64, i32, i32, i64, ptr, i64, ptr, i32, ptr, i32 }
%struct.AVChannelLayout = type { i32, i32, %union.anon, ptr }
%union.anon = type { i64 }
%struct.AVCodecInternal = type { i32, i32, i32, ptr, ptr, ptr, ptr, ptr, ptr, ptr, i32, ptr, ptr, ptr, i32, i32, ptr, i32, ptr, ptr, i32, i32 }
%struct.AVFrame = type { [8 x ptr], [8 x i32], ptr, i32, i32, i32, i32, i32, %struct.AVRational, i64, i64, %struct.AVRational, i32, ptr, i32, i32, [8 x ptr], ptr, i32, ptr, i32, i32, i32, i32, i32, i32, i32, i64, ptr, i32, ptr, ptr, i64, i64, i64, i64, ptr, %struct.AVChannelLayout, i64 }
%struct.EncodeContext = type { %struct.AVCodecInternal, i32, i32 }

; Function Attrs: nounwind uwtable
define internal ptr @encode_ctx(ptr noundef %0) #0 {
  %2 = alloca ptr, align 8
  store ptr %0, ptr %2, align 8, !tbaa !59
  %3 = load ptr, ptr %2, align 8, !tbaa !59
  ret ptr %3
}

; Function Attrs: nounwind uwtable
define internal i32 @pad_last_frame(ptr noundef %0, ptr noundef %1, ptr noundef %2, i32 noundef %3) #0 {
  %5 = alloca i32, align 4
  %6 = alloca ptr, align 8
  %7 = alloca ptr, align 8
  %8 = alloca ptr, align 8
  %9 = alloca i32, align 4
  %10 = alloca i32, align 4
  %11 = alloca i32, align 4
  store ptr %0, ptr %6, align 8, !tbaa !4
  store ptr %1, ptr %7, align 8, !tbaa !58
  store ptr %2, ptr %8, align 8, !tbaa !58
  store i32 %3, ptr %9, align 4, !tbaa !41
  call void @llvm.lifetime.start.p0(i64 4, ptr %10) #10
  %12 = load ptr, ptr %8, align 8, !tbaa !58
  %13 = getelementptr inbounds nuw %struct.AVFrame, ptr %12, i32 0, i32 6
  %14 = load i32, ptr %13, align 4, !tbaa !165
  %15 = load ptr, ptr %7, align 8, !tbaa !58
  %16 = getelementptr inbounds nuw %struct.AVFrame, ptr %15, i32 0, i32 6
  store i32 %14, ptr %16, align 4, !tbaa !165
  %17 = load i32, ptr %9, align 4, !tbaa !41
  %18 = load ptr, ptr %7, align 8, !tbaa !58
  %19 = getelementptr inbounds nuw %struct.AVFrame, ptr %18, i32 0, i32 5
  store i32 %17, ptr %19, align 8, !tbaa !84
  %20 = load ptr, ptr %7, align 8, !tbaa !58
  %21 = getelementptr inbounds nuw %struct.AVFrame, ptr %20, i32 0, i32 37
  %22 = load ptr, ptr %6, align 8, !tbaa !4
  %23 = getelementptr inbounds nuw %struct.AVCodecContext, ptr %22, i32 0, i32 71
  %24 = call i32 @av_channel_layout_copy(ptr noundef %21, ptr noundef %23)
  store i32 %24, ptr %10, align 4, !tbaa !41
  %25 = load i32, ptr %10, align 4, !tbaa !41
  %26 = icmp slt i32 %25, 0
  br i1 %26, label %27, label %28

27:                                               ; preds = %4
  br label %86

28:                                               ; preds = %4
  %29 = load ptr, ptr %7, align 8, !tbaa !58
  %30 = call i32 @av_frame_get_buffer(ptr noundef %29, i32 noundef 0)
  store i32 %30, ptr %10, align 4, !tbaa !41
  %31 = load i32, ptr %10, align 4, !tbaa !41
  %32 = icmp slt i32 %31, 0
  br i1 %32, label %33, label %34

33:                                               ; preds = %28
  br label %86

34:                                               ; preds = %28
  %35 = load ptr, ptr %7, align 8, !tbaa !58
  %36 = load ptr, ptr %8, align 8, !tbaa !58
  %37 = call i32 @av_frame_copy_props(ptr noundef %35, ptr noundef %36)
  store i32 %37, ptr %10, align 4, !tbaa !41
  %38 = load i32, ptr %10, align 4, !tbaa !41
  %39 = icmp slt i32 %38, 0
  br i1 %39, label %40, label %41

40:                                               ; preds = %34
  br label %86

41:                                               ; preds = %34
  %42 = load ptr, ptr %7, align 8, !tbaa !58
  %43 = getelementptr inbounds nuw %struct.AVFrame, ptr %42, i32 0, i32 2
  %44 = load ptr, ptr %43, align 8, !tbaa !184
  %45 = load ptr, ptr %8, align 8, !tbaa !58
  %46 = getelementptr inbounds nuw %struct.AVFrame, ptr %45, i32 0, i32 2
  %47 = load ptr, ptr %46, align 8, !tbaa !184
  %48 = load ptr, ptr %8, align 8, !tbaa !58
  %49 = getelementptr inbounds nuw %struct.AVFrame, ptr %48, i32 0, i32 5
  %50 = load i32, ptr %49, align 8, !tbaa !84
  %51 = load ptr, ptr %6, align 8, !tbaa !4
  %52 = getelementptr inbounds nuw %struct.AVCodecContext, ptr %51, i32 0, i32 71
  %53 = getelementptr inbounds nuw %struct.AVChannelLayout, ptr %52, i32 0, i32 1
  %54 = load i32, ptr %53, align 4, !tbaa !154
  %55 = load ptr, ptr %6, align 8, !tbaa !4
  %56 = getelementptr inbounds nuw %struct.AVCodecContext, ptr %55, i32 0, i32 70
  %57 = load i32, ptr %56, align 4, !tbaa !153
  %58 = call i32 @av_samples_copy(ptr noundef %44, ptr noundef %47, i32 noundef 0, i32 noundef 0, i32 noundef %50, i32 noundef %54, i32 noundef %57)
  store i32 %58, ptr %10, align 4, !tbaa !41
  %59 = icmp slt i32 %58, 0
  br i1 %59, label %60, label %61

60:                                               ; preds = %41
  br label %86

61:                                               ; preds = %41
  %62 = load ptr, ptr %7, align 8, !tbaa !58
  %63 = getelementptr inbounds nuw %struct.AVFrame, ptr %62, i32 0, i32 2
  %64 = load ptr, ptr %63, align 8, !tbaa !184
  %65 = load ptr, ptr %8, align 8, !tbaa !58
  %66 = getelementptr inbounds nuw %struct.AVFrame, ptr %65, i32 0, i32 5
  %67 = load i32, ptr %66, align 8, !tbaa !84
  %68 = load ptr, ptr %7, align 8, !tbaa !58
  %69 = getelementptr inbounds nuw %struct.AVFrame, ptr %68, i32 0, i32 5
  %70 = load i32, ptr %69, align 8, !tbaa !84
  %71 = load ptr, ptr %8, align 8, !tbaa !58
  %72 = getelementptr inbounds nuw %struct.AVFrame, ptr %71, i32 0, i32 5
  %73 = load i32, ptr %72, align 8, !tbaa !84
  %74 = sub nsw i32 %70, %73
  %75 = load ptr, ptr %6, align 8, !tbaa !4
  %76 = getelementptr inbounds nuw %struct.AVCodecContext, ptr %75, i32 0, i32 71
  %77 = getelementptr inbounds nuw %struct.AVChannelLayout, ptr %76, i32 0, i32 1
  %78 = load i32, ptr %77, align 4, !tbaa !154
  %79 = load ptr, ptr %6, align 8, !tbaa !4
  %80 = getelementptr inbounds nuw %struct.AVCodecContext, ptr %79, i32 0, i32 70
  %81 = load i32, ptr %80, align 4, !tbaa !153
  %82 = call i32 @av_samples_set_silence(ptr noundef %64, i32 noundef %67, i32 noundef %74, i32 noundef %78, i32 noundef %81)
  store i32 %82, ptr %10, align 4, !tbaa !41
  %83 = icmp slt i32 %82, 0
  br i1 %83, label %84, label %85

84:                                               ; preds = %61
  br label %86

85:                                               ; preds = %61
  store i32 0, ptr %5, align 4
  store i32 1, ptr %11, align 4
  br label %94

86:                                               ; preds = %84, %60, %40, %33, %27
  %87 = load ptr, ptr %7, align 8, !tbaa !58
  call void @av_frame_unref(ptr noundef %87)
  %88 = load ptr, ptr %6, align 8, !tbaa !4
  %89 = getelementptr inbounds nuw %struct.AVCodecContext, ptr %88, i32 0, i32 7
  %90 = load ptr, ptr %89, align 8, !tbaa !20
  %91 = call ptr @encode_ctx(ptr noundef %90)
  %92 = getelementptr inbounds nuw %struct.EncodeContext, ptr %91, i32 0, i32 2
  store i32 0, ptr %92, align 4, !tbaa !102
  %93 = load i32, ptr %10, align 4, !tbaa !41
  store i32 %93, ptr %5, align 4
  store i32 1, ptr %11, align 4
  br label %94

94:                                               ; preds = %86, %85
  call void @llvm.lifetime.end.p0(i64 4, ptr %10) #10
  %95 = load i32, ptr %5, align 4
  ret i32 %95
}