; Function Attrs: nounwind uwtable
define internal fastcc range(i32 -2147483648, 1) i32 @pad_last_frame(ptr noundef %0, ptr noundef initializes((112, 120)) %1, ptr noundef nonnull %2, i32 noundef %3) unnamed_addr #0 {
  %5 = getelementptr inbounds nuw i8, ptr %2, i64 116
  %6 = load i32, ptr %5, align 4, !tbaa !143
  %7 = getelementptr inbounds nuw i8, ptr %1, i64 116
  store i32 %6, ptr %7, align 4, !tbaa !143
  %8 = getelementptr inbounds nuw i8, ptr %1, i64 112
  store i32 %3, ptr %8, align 8, !tbaa !71
  %9 = getelementptr inbounds nuw i8, ptr %1, i64 384
  %10 = getelementptr inbounds nuw i8, ptr %0, i64 352
  %11 = tail call i32 @av_channel_layout_copy(ptr noundef nonnull %9, ptr noundef nonnull %10) #8
  %12 = icmp slt i32 %11, 0
  br i1 %12, label %41, label %13

13:                                               ; preds = %4
  %14 = tail call i32 @av_frame_get_buffer(ptr noundef nonnull %1, i32 noundef 0) #8
  %15 = icmp slt i32 %14, 0
  br i1 %15, label %41, label %16

16:                                               ; preds = %13
  %17 = tail call i32 @av_frame_copy_props(ptr noundef nonnull %1, ptr noundef nonnull %2) #8
  %18 = icmp slt i32 %17, 0
  br i1 %18, label %41, label %19

19:                                               ; preds = %16
  %20 = getelementptr inbounds nuw i8, ptr %1, i64 96
  %21 = load ptr, ptr %20, align 8, !tbaa !164
  %22 = getelementptr inbounds nuw i8, ptr %2, i64 96
  %23 = load ptr, ptr %22, align 8, !tbaa !164
  %24 = getelementptr inbounds nuw i8, ptr %2, i64 112
  %25 = load i32, ptr %24, align 8, !tbaa !71
  %26 = getelementptr inbounds nuw i8, ptr %0, i64 356
  %27 = load i32, ptr %26, align 4, !tbaa !119
  %28 = getelementptr inbounds nuw i8, ptr %0, i64 348
  %29 = load i32, ptr %28, align 4, !tbaa !118
  %30 = tail call i32 @av_samples_copy(ptr noundef %21, ptr noundef %23, i32 noundef 0, i32 noundef 0, i32 noundef %25, i32 noundef %27, i32 noundef %29) #8
  %31 = icmp slt i32 %30, 0
  br i1 %31, label %41, label %32

32:                                               ; preds = %19
  %33 = load ptr, ptr %20, align 8, !tbaa !164
  %34 = load i32, ptr %24, align 8, !tbaa !71
  %35 = load i32, ptr %8, align 8, !tbaa !71
  %36 = sub nsw i32 %35, %34
  %37 = load i32, ptr %26, align 4, !tbaa !119
  %38 = load i32, ptr %28, align 4, !tbaa !118
  %39 = tail call i32 @av_samples_set_silence(ptr noundef %33, i32 noundef %34, i32 noundef %36, i32 noundef %37, i32 noundef %38) #8
  %40 = icmp slt i32 %39, 0
  br i1 %40, label %41, label %45

41:                                               ; preds = %32, %19, %16, %13, %4
  %.0 = phi i32 [ %11, %4 ], [ %14, %13 ], [ %17, %16 ], [ %30, %19 ], [ %39, %32 ]
  tail call void @av_frame_unref(ptr noundef nonnull %1) #8
  %42 = getelementptr inbounds nuw i8, ptr %0, i64 40
  %43 = load ptr, ptr %42, align 8, !tbaa !15
  %44 = getelementptr inbounds nuw i8, ptr %43, i64 156
  store i32 0, ptr %44, align 4, !tbaa !81
  br label %45

45:                                               ; preds = %32, %41
  %.026 = phi i32 [ %.0, %41 ], [ 0, %32 ]
  ret i32 %.026
}